; Function Attrs: mustprogress nofree norecurse nosync nounwind willreturn memory(read, inaccessiblemem: none) uwtable
define hidden noundef ptr @_ZN9CodeCache24get_code_heap_containingEPv(ptr noundef readnone %0) local_unnamed_addr #5 align 2 {
  %2 = load ptr, ptr @_ZN9CodeCache6_heapsE, align 8
  %3 = load i32, ptr %2, align 4
  %.not9 = icmp eq i32 %3, 0
  br i1 %.not9, label %._crit_edge, label %.lr.ph

.lr.ph:                                           ; preds = %1
  %4 = getelementptr inbounds i8, ptr %2, i64 8
  %5 = load ptr, ptr %4, align 8
  %6 = zext i32 %3 to i64
  br label %8

7:                                                ; preds = %8
  %indvars.iv.next = add nuw nsw i64 %indvars.iv, 1
  %.not = icmp eq i64 %indvars.iv.next, %6
  br i1 %.not, label %._crit_edge, label %8, !llvm.loop !21

8:                                                ; preds = %.lr.ph, %7
  %indvars.iv = phi i64 [ 0, %.lr.ph ], [ %indvars.iv.next, %7 ]
  %9 = getelementptr inbounds ptr, ptr %5, i64 %indvars.iv
  %10 = load ptr, ptr %9, align 8
  %11 = getelementptr inbounds i8, ptr %10, i64 16
  %12 = load ptr, ptr %11, align 8
  %.not.i = icmp ule ptr %12, %0
  %13 = getelementptr inbounds i8, ptr %10, i64 24
  %14 = load ptr, ptr %13, align 8
  %15 = icmp ugt ptr %14, %0
  %16 = select i1 %.not.i, i1 %15, i1 false
  br i1 %16, label %._crit_edge, label %7

._crit_edge:                                      ; preds = %7, %8, %1
  %.0 = phi ptr [ null, %1 ], [ %10, %8 ], [ null, %7 ]
  ret ptr %.0
}